target datalayout = "e-m:e-p270:32:32-p271:32:32-p272:64:64-i64:64-i128:128-f80:128-n8:16:32:64-S128"
target triple = "x86_64-pc-linux-gnu"

%"class.pxrInternal_v0_24__pxrReserved__::TfEnum" = type <{ ptr, i32, [4 x i8] }>
%"struct.pxrInternal_v0_24__pxrReserved__::TsTest_SplineData::Extrapolation" = type <{ i32, [4 x i8], double, i32, [4 x i8] }>
%"class.std::__cxx11::basic_string" = type { %"struct.std::__cxx11::basic_string<char>::_Alloc_hider", i64, %union.anon }
%"struct.std::__cxx11::basic_string<char>::_Alloc_hider" = type { ptr }
%union.anon = type { i64, [8 x i8] }
%"class.std::__cxx11::basic_ostringstream" = type { %"class.std::basic_ostream.base", %"class.std::__cxx11::basic_stringbuf", %"class.std::basic_ios" }
%"class.std::basic_ostream.base" = type { ptr }
%"class.std::__cxx11::basic_stringbuf" = type { %"class.std::basic_streambuf", i32, %"class.std::__cxx11::basic_string" }
%"class.std::basic_streambuf" = type { ptr, ptr, ptr, ptr, ptr, ptr, ptr, %"class.std::locale" }
%"class.std::locale" = type { ptr }
%"class.std::basic_ios" = type { %"class.std::ios_base", ptr, i8, i8, ptr, ptr, ptr, ptr }
%"class.std::ios_base" = type { ptr, i64, i64, i32, i32, i32, ptr, %"struct.std::ios_base::_Words", [8 x %"struct.std::ios_base::_Words"], i32, ptr, %"class.std::locale" }
%"struct.std::ios_base::_Words" = type { ptr, i64 }

@_ZTIN32pxrInternal_v0_24__pxrReserved__17TsTest_SplineData12ExtrapMethodE = linkonce_odr constant { ptr, ptr } { ptr getelementptr inbounds (ptr, ptr @_ZTVN10__cxxabiv116__enum_type_infoE, i64 2), ptr @_ZTSN32pxrInternal_v0_24__pxrReserved__17TsTest_SplineData12ExtrapMethodE }, comdat, align 8
@_ZTIN32pxrInternal_v0_24__pxrReserved__17TsTest_SplineData8LoopModeE = linkonce_odr constant { ptr, ptr } { ptr getelementptr inbounds (ptr, ptr @_ZTVN10__cxxabiv116__enum_type_infoE, i64 2), ptr @_ZTSN32pxrInternal_v0_24__pxrReserved__17TsTest_SplineData8LoopModeE }, comdat, align 8
@.str.45 = private unnamed_addr constant [2 x i8] c" \00", align 1

; Function Attrs: mustprogress nounwind uwtable
define linkonce_odr void @_ZN32pxrInternal_v0_24__pxrReserved__6TfEnumC2INS_17TsTest_SplineData8LoopModeEEET_PNSt9enable_ifIXsr3std7is_enumIS4_EE5valueEvE4typeE(ptr noundef nonnull align 8 dereferenceable(12) %0, i32 noundef %1, ptr noundef %2) unnamed_addr #2 comdat align 2 {
  %4 = alloca ptr, align 8
  %5 = alloca i32, align 4
  %6 = alloca ptr, align 8
  store ptr %0, ptr %4, align 8
  store i32 %1, ptr %5, align 4
  store ptr %2, ptr %6, align 8
  %7 = load ptr, ptr %4, align 8
  %8 = getelementptr inbounds nuw %"class.pxrInternal_v0_24__pxrReserved__::TfEnum", ptr %7, i32 0, i32 0
  store ptr @_ZTIN32pxrInternal_v0_24__pxrReserved__17TsTest_SplineData8LoopModeE, ptr %8, align 8
  %9 = getelementptr inbounds nuw %"class.pxrInternal_v0_24__pxrReserved__::TfEnum", ptr %7, i32 0, i32 1
  %10 = load i32, ptr %5, align 4
  store i32 %10, ptr %9, align 8
  ret void
}

; Function Attrs: mustprogress nounwind uwtable
define linkonce_odr void @_ZN32pxrInternal_v0_24__pxrReserved__6TfEnumC2INS_17TsTest_SplineData12ExtrapMethodEEET_PNSt9enable_ifIXsr3std7is_enumIS4_EE5valueEvE4typeE(ptr noundef nonnull align 8 dereferenceable(12) %0, i32 noundef %1, ptr noundef %2) unnamed_addr #2 comdat align 2 {
  %4 = alloca ptr, align 8
  %5 = alloca i32, align 4
  %6 = alloca ptr, align 8
  store ptr %0, ptr %4, align 8
  store i32 %1, ptr %5, align 4
  store ptr %2, ptr %6, align 8
  %7 = load ptr, ptr %4, align 8
  %8 = getelementptr inbounds nuw %"class.pxrInternal_v0_24__pxrReserved__::TfEnum", ptr %7, i32 0, i32 0
  store ptr @_ZTIN32pxrInternal_v0_24__pxrReserved__17TsTest_SplineData12ExtrapMethodE, ptr %8, align 8
  %9 = getelementptr inbounds nuw %"class.pxrInternal_v0_24__pxrReserved__::TfEnum", ptr %7, i32 0, i32 1
  %10 = load i32, ptr %5, align 4
  store i32 %10, ptr %9, align 8
  ret void
}

; Function Attrs: mustprogress uwtable
define internal void @_ZN32pxrInternal_v0_24__pxrReserved__L14_GetExtrapDescB5cxx11ERKNS_17TsTest_SplineData13ExtrapolationE(ptr dead_on_unwind noalias writable sret(%"class.std::__cxx11::basic_string") align 8 %0, ptr noundef nonnull align 8 dereferenceable(20) %1) #0 personality ptr @__gxx_personality_v0 {
  %3 = alloca ptr, align 8
  %4 = alloca ptr, align 8
  %5 = alloca %"class.std::__cxx11::basic_ostringstream", align 8
  %6 = alloca %"class.std::__cxx11::basic_string", align 8
  %7 = alloca %"class.std::__cxx11::basic_string", align 8
  %8 = alloca %"class.pxrInternal_v0_24__pxrReserved__::TfEnum", align 8
  %9 = alloca ptr, align 8
  %10 = alloca i32, align 4
  %11 = alloca %"class.std::__cxx11::basic_string", align 8
  %12 = alloca %"class.std::__cxx11::basic_string", align 8
  %13 = alloca %"class.pxrInternal_v0_24__pxrReserved__::TfEnum", align 8
  store ptr %0, ptr %3, align 8
  store ptr %1, ptr %4, align 8
  call void @_ZNSt7__cxx1119basic_ostringstreamIcSt11char_traitsIcESaIcEEC1Ev(ptr noundef nonnull align 8 dereferenceable(112) %5)
  %14 = load ptr, ptr %4, align 8
  %15 = getelementptr inbounds nuw %"struct.pxrInternal_v0_24__pxrReserved__::TsTest_SplineData::Extrapolation", ptr %14, i32 0, i32 0
  %16 = load i32, ptr %15, align 8
  invoke void @_ZN32pxrInternal_v0_24__pxrReserved__6TfEnumC2INS_17TsTest_SplineData12ExtrapMethodEEET_PNSt9enable_ifIXsr3std7is_enumIS4_EE5valueEvE4typeE(ptr noundef nonnull align 8 dereferenceable(12) %8, i32 noundef %16, ptr noundef null)
          to label %17 unwind label %38

17:                                               ; preds = %2
  %18 = getelementptr inbounds nuw { ptr, i32 }, ptr %8, i32 0, i32 0
  %19 = load ptr, ptr %18, align 8
  %20 = getelementptr inbounds nuw { ptr, i32 }, ptr %8, i32 0, i32 1
  %21 = load i32, ptr %20, align 8
  invoke void @_ZN32pxrInternal_v0_24__pxrReserved__6TfEnum7GetNameB5cxx11ES0_(ptr dead_on_unwind writable sret(%"class.std::__cxx11::basic_string") align 8 %7, ptr %19, i32 %21)
          to label %22 unwind label %38

22:                                               ; preds = %17
  invoke void @_ZNKSt7__cxx1112basic_stringIcSt11char_traitsIcESaIcEE6substrEmm(ptr dead_on_unwind writable sret(%"class.std::__cxx11::basic_string") align 8 %6, ptr noundef nonnull align 8 dereferenceable(32) %7, i64 noundef 6, i64 noundef -1)
          to label %23 unwind label %42

23:                                               ; preds = %22
  %24 = invoke noundef nonnull align 8 dereferenceable(8) ptr @_ZStlsIcSt11char_traitsIcESaIcEERSt13basic_ostreamIT_T0_ES7_RKNSt7__cxx1112basic_stringIS4_S5_T1_EE(ptr noundef nonnull align 8 dereferenceable(8) %5, ptr noundef nonnull align 8 dereferenceable(32) %6)
          to label %25 unwind label %46

25:                                               ; preds = %23
  call void @_ZNSt7__cxx1112basic_stringIcSt11char_traitsIcESaIcEED1Ev(ptr noundef nonnull align 8 dereferenceable(32) %6) #6
  call void @_ZNSt7__cxx1112basic_stringIcSt11char_traitsIcESaIcEED1Ev(ptr noundef nonnull align 8 dereferenceable(32) %7) #6
  %26 = load ptr, ptr %4, align 8
  %27 = getelementptr inbounds nuw %"struct.pxrInternal_v0_24__pxrReserved__::TsTest_SplineData::Extrapolation", ptr %26, i32 0, i32 0
  %28 = load i32, ptr %27, align 8
  %29 = icmp eq i32 %28, 2
  br i1 %29, label %30, label %51

30:                                               ; preds = %25
  %31 = invoke noundef nonnull align 8 dereferenceable(8) ptr @_ZStlsISt11char_traitsIcEERSt13basic_ostreamIcT_ES5_PKc(ptr noundef nonnull align 8 dereferenceable(8) %5, ptr noundef @.str.45)
          to label %32 unwind label %38

32:                                               ; preds = %30
  %33 = load ptr, ptr %4, align 8
  %34 = getelementptr inbounds nuw %"struct.pxrInternal_v0_24__pxrReserved__::TsTest_SplineData::Extrapolation", ptr %33, i32 0, i32 2
  %35 = load double, ptr %34, align 8
  %36 = invoke noundef nonnull align 8 dereferenceable(8) ptr @_ZNSolsEd(ptr noundef nonnull align 8 dereferenceable(8) %31, double noundef %35)
          to label %37 unwind label %38

37:                                               ; preds = %32
  br label %81

38:                                               ; preds = %81, %62, %58, %56, %32, %30, %17, %2
  %39 = landingpad { ptr, i32 }
          cleanup
  %40 = extractvalue { ptr, i32 } %39, 0
  store ptr %40, ptr %9, align 8
  %41 = extractvalue { ptr, i32 } %39, 1
  store i32 %41, ptr %10, align 4
  br label %83

42:                                               ; preds = %22
  %43 = landingpad { ptr, i32 }
          cleanup
  %44 = extractvalue { ptr, i32 } %43, 0
  store ptr %44, ptr %9, align 8
  %45 = extractvalue { ptr, i32 } %43, 1
  store i32 %45, ptr %10, align 4
  br label %50

46:                                               ; preds = %23
  %47 = landingpad { ptr, i32 }
          cleanup
  %48 = extractvalue { ptr, i32 } %47, 0
  store ptr %48, ptr %9, align 8
  %49 = extractvalue { ptr, i32 } %47, 1
  store i32 %49, ptr %10, align 4
  call void @_ZNSt7__cxx1112basic_stringIcSt11char_traitsIcESaIcEED1Ev(ptr noundef nonnull align 8 dereferenceable(32) %6) #6
  br label %50

50:                                               ; preds = %46, %42
  call void @_ZNSt7__cxx1112basic_stringIcSt11char_traitsIcESaIcEED1Ev(ptr noundef nonnull align 8 dereferenceable(32) %7) #6
  br label %83

51:                                               ; preds = %25
  %52 = load ptr, ptr %4, align 8
  %53 = getelementptr inbounds nuw %"struct.pxrInternal_v0_24__pxrReserved__::TsTest_SplineData::Extrapolation", ptr %52, i32 0, i32 0
  %54 = load i32, ptr %53, align 8
  %55 = icmp eq i32 %54, 3
  br i1 %55, label %56, label %80

56:                                               ; preds = %51
  %57 = invoke noundef nonnull align 8 dereferenceable(8) ptr @_ZStlsISt11char_traitsIcEERSt13basic_ostreamIcT_ES5_PKc(ptr noundef nonnull align 8 dereferenceable(8) %5, ptr noundef @.str.45)
          to label %58 unwind label %38

58:                                               ; preds = %56
  %59 = load ptr, ptr %4, align 8
  %60 = getelementptr inbounds nuw %"struct.pxrInternal_v0_24__pxrReserved__::TsTest_SplineData::Extrapolation", ptr %59, i32 0, i32 3
  %61 = load i32, ptr %60, align 8
  invoke void @_ZN32pxrInternal_v0_24__pxrReserved__6TfEnumC2INS_17TsTest_SplineData8LoopModeEEET_PNSt9enable_ifIXsr3std7is_enumIS4_EE5valueEvE4typeE(ptr noundef nonnull align 8 dereferenceable(12) %13, i32 noundef %61, ptr noundef null)
          to label %62 unwind label %38

62:                                               ; preds = %58
  %63 = getelementptr inbounds nuw { ptr, i32 }, ptr %13, i32 0, i32 0
  %64 = load ptr, ptr %63, align 8
  %65 = getelementptr inbounds nuw { ptr, i32 }, ptr %13, i32 0, i32 1
  %66 = load i32, ptr %65, align 8
  invoke void @_ZN32pxrInternal_v0_24__pxrReserved__6TfEnum7GetNameB5cxx11ES0_(ptr dead_on_unwind writable sret(%"class.std::__cxx11::basic_string") align 8 %12, ptr %64, i32 %66)
          to label %67 unwind label %38

67:                                               ; preds = %62
  invoke void @_ZNKSt7__cxx1112basic_stringIcSt11char_traitsIcESaIcEE6substrEmm(ptr dead_on_unwind writable sret(%"class.std::__cxx11::basic_string") align 8 %11, ptr noundef nonnull align 8 dereferenceable(32) %12, i64 noundef 4, i64 noundef -1)
          to label %68 unwind label %71

68:                                               ; preds = %67
  %69 = invoke noundef nonnull align 8 dereferenceable(8) ptr @_ZStlsIcSt11char_traitsIcESaIcEERSt13basic_ostreamIT_T0_ES7_RKNSt7__cxx1112basic_stringIS4_S5_T1_EE(ptr noundef nonnull align 8 dereferenceable(8) %57, ptr noundef nonnull align 8 dereferenceable(32) %11)
          to label %70 unwind label %75

70:                                               ; preds = %68
  call void @_ZNSt7__cxx1112basic_stringIcSt11char_traitsIcESaIcEED1Ev(ptr noundef nonnull align 8 dereferenceable(32) %11) #6
  call void @_ZNSt7__cxx1112basic_stringIcSt11char_traitsIcESaIcEED1Ev(ptr noundef nonnull align 8 dereferenceable(32) %12) #6
  br label %80

71:                                               ; preds = %67
  %72 = landingpad { ptr, i32 }
          cleanup
  %73 = extractvalue { ptr, i32 } %72, 0
  store ptr %73, ptr %9, align 8
  %74 = extractvalue { ptr, i32 } %72, 1
  store i32 %74, ptr %10, align 4
  br label %79

75:                                               ; preds = %68
  %76 = landingpad { ptr, i32 }
          cleanup
  %77 = extractvalue { ptr, i32 } %76, 0
  store ptr %77, ptr %9, align 8
  %78 = extractvalue { ptr, i32 } %76, 1
  store i32 %78, ptr %10, align 4
  call void @_ZNSt7__cxx1112basic_stringIcSt11char_traitsIcESaIcEED1Ev(ptr noundef nonnull align 8 dereferenceable(32) %11) #6
  br label %79

79:                                               ; preds = %75, %71
  call void @_ZNSt7__cxx1112basic_stringIcSt11char_traitsIcESaIcEED1Ev(ptr noundef nonnull align 8 dereferenceable(32) %12) #6
  br label %83

80:                                               ; preds = %70, %51
  br label %81

81:                                               ; preds = %80, %37
  invoke void @_ZNKSt7__cxx1119basic_ostringstreamIcSt11char_traitsIcESaIcEE3strEv(ptr dead_on_unwind writable sret(%"class.std::__cxx11::basic_string") align 8 %0, ptr noundef nonnull align 8 dereferenceable(112) %5)
          to label %82 unwind label %38

82:                                               ; preds = %81
  call void @_ZNSt7__cxx1119basic_ostringstreamIcSt11char_traitsIcESaIcEED1Ev(ptr noundef nonnull align 8 dereferenceable(112) %5) #6
  ret void

83:                                               ; preds = %79, %50, %38
  call void @_ZNSt7__cxx1119basic_ostringstreamIcSt11char_traitsIcESaIcEED1Ev(ptr noundef nonnull align 8 dereferenceable(112) %5) #6
  br label %84

84:                                               ; preds = %83
  %85 = load ptr, ptr %9, align 8
  %86 = load i32, ptr %10, align 4
  %87 = insertvalue { ptr, i32 } poison, ptr %85, 0
  %88 = insertvalue { ptr, i32 } %87, i32 %86, 1
  resume { ptr, i32 } %88
}